target datalayout = "e-m:e-p270:32:32-p271:32:32-p272:64:64-i64:64-i128:128-f80:128-n8:16:32:64-S128"
target triple = "x86_64-pc-linux-gnu"

%struct.ec_point_st = type { ptr, i32, ptr, ptr, ptr, i32 }

@ONE = internal constant [4 x i64] [i64 1, i64 -4294967296, i64 -1, i64 4294967294], align 16
@def_xG = internal constant [4 x i64] [i64 8784043285714375740, i64 8483257759279461889, i64 8789745728267363600, i64 1770019616739251654], align 16
@def_yG = internal constant [4 x i64] [i64 -2453807210370345462, i64 -8409706061646666660, i64 -3249199208764148955, i64 -8830996915122840187], align 16

; Function Attrs: nounwind uwtable
define internal i64 @is_zero(i64 noundef %0) #0 {
  %2 = alloca i64, align 8
  store i64 %0, ptr %2, align 8, !tbaa !30
  %3 = load i64, ptr %2, align 8, !tbaa !30
  %4 = sub i64 0, %3
  %5 = load i64, ptr %2, align 8, !tbaa !30
  %6 = or i64 %5, %4
  store i64 %6, ptr %2, align 8, !tbaa !30
  %7 = load i64, ptr %2, align 8, !tbaa !30
  %8 = xor i64 %7, -1
  store i64 %8, ptr %2, align 8, !tbaa !30
  %9 = load i64, ptr %2, align 8, !tbaa !30
  %10 = lshr i64 %9, 63
  store i64 %10, ptr %2, align 8, !tbaa !30
  %11 = load i64, ptr %2, align 8, !tbaa !30
  ret i64 %11
}

; Function Attrs: nounwind uwtable
define internal i64 @is_one(ptr noundef %0) #0 {
  %2 = alloca ptr, align 8
  %3 = alloca i64, align 8
  %4 = alloca ptr, align 8
  store ptr %0, ptr %2, align 8, !tbaa !21
  call void @llvm.lifetime.start.p0(i64 8, ptr %3) #6
  store i64 0, ptr %3, align 8, !tbaa !30
  call void @llvm.lifetime.start.p0(i64 8, ptr %4) #6
  %5 = load ptr, ptr %2, align 8, !tbaa !21
  %6 = call ptr @bn_get_words(ptr noundef %5)
  store ptr %6, ptr %4, align 8, !tbaa !68
  %7 = load ptr, ptr %2, align 8, !tbaa !21
  %8 = call i32 @bn_get_top(ptr noundef %7)
  %9 = icmp eq i32 %8, 4
  br i1 %9, label %10, label %39

10:                                               ; preds = %1
  %11 = load ptr, ptr %4, align 8, !tbaa !68
  %12 = getelementptr inbounds i64, ptr %11, i64 0
  %13 = load i64, ptr %12, align 8, !tbaa !30
  %14 = load i64, ptr @ONE, align 16, !tbaa !30
  %15 = xor i64 %13, %14
  store i64 %15, ptr %3, align 8, !tbaa !30
  %16 = load ptr, ptr %4, align 8, !tbaa !68
  %17 = getelementptr inbounds i64, ptr %16, i64 1
  %18 = load i64, ptr %17, align 8, !tbaa !30
  %19 = load i64, ptr getelementptr inbounds ([4 x i64], ptr @ONE, i64 0, i64 1), align 8, !tbaa !30
  %20 = xor i64 %18, %19
  %21 = load i64, ptr %3, align 8, !tbaa !30
  %22 = or i64 %21, %20
  store i64 %22, ptr %3, align 8, !tbaa !30
  %23 = load ptr, ptr %4, align 8, !tbaa !68
  %24 = getelementptr inbounds i64, ptr %23, i64 2
  %25 = load i64, ptr %24, align 8, !tbaa !30
  %26 = load i64, ptr getelementptr inbounds ([4 x i64], ptr @ONE, i64 0, i64 2), align 16, !tbaa !30
  %27 = xor i64 %25, %26
  %28 = load i64, ptr %3, align 8, !tbaa !30
  %29 = or i64 %28, %27
  store i64 %29, ptr %3, align 8, !tbaa !30
  %30 = load ptr, ptr %4, align 8, !tbaa !68
  %31 = getelementptr inbounds i64, ptr %30, i64 3
  %32 = load i64, ptr %31, align 8, !tbaa !30
  %33 = load i64, ptr getelementptr inbounds ([4 x i64], ptr @ONE, i64 0, i64 3), align 8, !tbaa !30
  %34 = xor i64 %32, %33
  %35 = load i64, ptr %3, align 8, !tbaa !30
  %36 = or i64 %35, %34
  store i64 %36, ptr %3, align 8, !tbaa !30
  %37 = load i64, ptr %3, align 8, !tbaa !30
  %38 = call i64 @is_zero(i64 noundef %37)
  store i64 %38, ptr %3, align 8, !tbaa !30
  br label %39

39:                                               ; preds = %10, %1
  %40 = load i64, ptr %3, align 8, !tbaa !30
  call void @llvm.lifetime.end.p0(i64 8, ptr %4) #6
  call void @llvm.lifetime.end.p0(i64 8, ptr %3) #6
  ret i64 %40
}

; Function Attrs: nounwind uwtable
define internal i64 @is_equal(ptr noundef %0, ptr noundef %1) #0 {
  %3 = alloca ptr, align 8
  %4 = alloca ptr, align 8
  %5 = alloca i64, align 8
  store ptr %0, ptr %3, align 8, !tbaa !68
  store ptr %1, ptr %4, align 8, !tbaa !68
  call void @llvm.lifetime.start.p0(i64 8, ptr %5) #6
  %6 = load ptr, ptr %3, align 8, !tbaa !68
  %7 = getelementptr inbounds i64, ptr %6, i64 0
  %8 = load i64, ptr %7, align 8, !tbaa !30
  %9 = load ptr, ptr %4, align 8, !tbaa !68
  %10 = getelementptr inbounds i64, ptr %9, i64 0
  %11 = load i64, ptr %10, align 8, !tbaa !30
  %12 = xor i64 %8, %11
  store i64 %12, ptr %5, align 8, !tbaa !30
  %13 = load ptr, ptr %3, align 8, !tbaa !68
  %14 = getelementptr inbounds i64, ptr %13, i64 1
  %15 = load i64, ptr %14, align 8, !tbaa !30
  %16 = load ptr, ptr %4, align 8, !tbaa !68
  %17 = getelementptr inbounds i64, ptr %16, i64 1
  %18 = load i64, ptr %17, align 8, !tbaa !30
  %19 = xor i64 %15, %18
  %20 = load i64, ptr %5, align 8, !tbaa !30
  %21 = or i64 %20, %19
  store i64 %21, ptr %5, align 8, !tbaa !30
  %22 = load ptr, ptr %3, align 8, !tbaa !68
  %23 = getelementptr inbounds i64, ptr %22, i64 2
  %24 = load i64, ptr %23, align 8, !tbaa !30
  %25 = load ptr, ptr %4, align 8, !tbaa !68
  %26 = getelementptr inbounds i64, ptr %25, i64 2
  %27 = load i64, ptr %26, align 8, !tbaa !30
  %28 = xor i64 %24, %27
  %29 = load i64, ptr %5, align 8, !tbaa !30
  %30 = or i64 %29, %28
  store i64 %30, ptr %5, align 8, !tbaa !30
  %31 = load ptr, ptr %3, align 8, !tbaa !68
  %32 = getelementptr inbounds i64, ptr %31, i64 3
  %33 = load i64, ptr %32, align 8, !tbaa !30
  %34 = load ptr, ptr %4, align 8, !tbaa !68
  %35 = getelementptr inbounds i64, ptr %34, i64 3
  %36 = load i64, ptr %35, align 8, !tbaa !30
  %37 = xor i64 %33, %36
  %38 = load i64, ptr %5, align 8, !tbaa !30
  %39 = or i64 %38, %37
  store i64 %39, ptr %5, align 8, !tbaa !30
  %40 = load i64, ptr %5, align 8, !tbaa !30
  %41 = call i64 @is_zero(i64 noundef %40)
  call void @llvm.lifetime.end.p0(i64 8, ptr %5) #6
  ret i64 %41
}

; Function Attrs: nounwind uwtable
define internal i32 @ecp_nistz256_is_affine_G(ptr noundef %0) #0 {
  %2 = alloca ptr, align 8
  store ptr %0, ptr %2, align 8, !tbaa !19
  %3 = load ptr, ptr %2, align 8, !tbaa !19
  %4 = getelementptr inbounds nuw %struct.ec_point_st, ptr %3, i32 0, i32 2
  %5 = load ptr, ptr %4, align 8, !tbaa !25
  %6 = call i32 @bn_get_top(ptr noundef %5)
  %7 = icmp eq i32 %6, 4
  br i1 %7, label %8, label %34

8:                                                ; preds = %1
  %9 = load ptr, ptr %2, align 8, !tbaa !19
  %10 = getelementptr inbounds nuw %struct.ec_point_st, ptr %9, i32 0, i32 3
  %11 = load ptr, ptr %10, align 8, !tbaa !28
  %12 = call i32 @bn_get_top(ptr noundef %11)
  %13 = icmp eq i32 %12, 4
  br i1 %13, label %14, label %34

14:                                               ; preds = %8
  %15 = load ptr, ptr %2, align 8, !tbaa !19
  %16 = getelementptr inbounds nuw %struct.ec_point_st, ptr %15, i32 0, i32 2
  %17 = load ptr, ptr %16, align 8, !tbaa !25
  %18 = call ptr @bn_get_words(ptr noundef %17)
  %19 = call i64 @is_equal(ptr noundef %18, ptr noundef @def_xG)
  %20 = icmp ne i64 %19, 0
  br i1 %20, label %21, label %34

21:                                               ; preds = %14
  %22 = load ptr, ptr %2, align 8, !tbaa !19
  %23 = getelementptr inbounds nuw %struct.ec_point_st, ptr %22, i32 0, i32 3
  %24 = load ptr, ptr %23, align 8, !tbaa !28
  %25 = call ptr @bn_get_words(ptr noundef %24)
  %26 = call i64 @is_equal(ptr noundef %25, ptr noundef @def_yG)
  %27 = icmp ne i64 %26, 0
  br i1 %27, label %28, label %34

28:                                               ; preds = %21
  %29 = load ptr, ptr %2, align 8, !tbaa !19
  %30 = getelementptr inbounds nuw %struct.ec_point_st, ptr %29, i32 0, i32 4
  %31 = load ptr, ptr %30, align 8, !tbaa !29
  %32 = call i64 @is_one(ptr noundef %31)
  %33 = icmp ne i64 %32, 0
  br label %34

34:                                               ; preds = %28, %21, %14, %8, %1
  %35 = phi i1 [ false, %21 ], [ false, %14 ], [ false, %8 ], [ false, %1 ], [ %33, %28 ]
  %36 = zext i1 %35 to i32
  ret i32 %36
}