; Function Attrs: nounwind uwtable
define internal fastcc range(i32 0, 2) i32 @ecp_nistz256_is_affine_G(ptr noundef nonnull readonly captures(none) %0) unnamed_addr #2 {
  %2 = getelementptr inbounds nuw i8, ptr %0, i64 16
  %3 = load ptr, ptr %2, align 8, !tbaa !11
  %4 = tail call i32 @bn_get_top(ptr noundef %3) #7
  %5 = icmp eq i32 %4, 4
  br i1 %5, label %6, label %is_one.exit

6:                                                ; preds = %1
  %7 = getelementptr inbounds nuw i8, ptr %0, i64 24
  %8 = load ptr, ptr %7, align 8, !tbaa !16
  %9 = tail call i32 @bn_get_top(ptr noundef %8) #7
  %10 = icmp eq i32 %9, 4
  br i1 %10, label %11, label %is_one.exit

11:                                               ; preds = %6
  %12 = load ptr, ptr %2, align 8, !tbaa !11
  %13 = tail call ptr @bn_get_words(ptr noundef %12) #7
  %14 = load i64, ptr %13, align 8, !tbaa !35
  %15 = getelementptr inbounds nuw i8, ptr %13, i64 8
  %16 = load i64, ptr %15, align 8, !tbaa !35
  %17 = getelementptr inbounds nuw i8, ptr %13, i64 16
  %18 = load i64, ptr %17, align 8, !tbaa !35
  %19 = getelementptr inbounds nuw i8, ptr %13, i64 24
  %20 = load i64, ptr %19, align 8, !tbaa !35
  %21 = icmp ne i64 %14, 8784043285714375740
  %22 = icmp ne i64 %16, 8483257759279461889
  %.not13 = or i1 %21, %22
  %23 = icmp ne i64 %18, 8789745728267363600
  %.not10 = or i1 %.not13, %23
  %24 = icmp ne i64 %20, 1770019616739251654
  %.not8 = or i1 %.not10, %24
  br i1 %.not8, label %is_one.exit, label %25

25:                                               ; preds = %11
  %26 = load ptr, ptr %7, align 8, !tbaa !16
  %27 = tail call ptr @bn_get_words(ptr noundef %26) #7
  %28 = load i64, ptr %27, align 8, !tbaa !35
  %29 = getelementptr inbounds nuw i8, ptr %27, i64 8
  %30 = load i64, ptr %29, align 8, !tbaa !35
  %31 = getelementptr inbounds nuw i8, ptr %27, i64 16
  %32 = load i64, ptr %31, align 8, !tbaa !35
  %33 = getelementptr inbounds nuw i8, ptr %27, i64 24
  %34 = load i64, ptr %33, align 8, !tbaa !35
  %35 = icmp ne i64 %28, -2453807210370345462
  %36 = icmp ne i64 %30, -8409706061646666660
  %.not20 = or i1 %35, %36
  %37 = icmp ne i64 %32, -3249199208764148955
  %.not18 = or i1 %.not20, %37
  %38 = icmp ne i64 %34, -8830996915122840187
  %.not15 = or i1 %.not18, %38
  br i1 %.not15, label %is_one.exit, label %39

39:                                               ; preds = %25
  %40 = getelementptr inbounds nuw i8, ptr %0, i64 32
  %41 = load ptr, ptr %40, align 8, !tbaa !17
  %42 = tail call ptr @bn_get_words(ptr noundef %41) #7
  %43 = tail call i32 @bn_get_top(ptr noundef %41) #7
  %44 = icmp eq i32 %43, 4
  br i1 %44, label %45, label %is_one.exit

45:                                               ; preds = %39
  %46 = load i64, ptr %42, align 8, !tbaa !35
  %47 = getelementptr inbounds nuw i8, ptr %42, i64 8
  %48 = load i64, ptr %47, align 8, !tbaa !35
  %49 = getelementptr inbounds nuw i8, ptr %42, i64 16
  %50 = load i64, ptr %49, align 8, !tbaa !35
  %51 = getelementptr inbounds nuw i8, ptr %42, i64 24
  %52 = load i64, ptr %51, align 8, !tbaa !35
  %53 = icmp eq i64 %46, 1
  %54 = icmp eq i64 %48, -4294967296
  %55 = and i1 %53, %54
  %56 = icmp eq i64 %50, -1
  %57 = and i1 %55, %56
  %58 = icmp eq i64 %52, 4294967294
  %59 = and i1 %57, %58
  %60 = zext i1 %59 to i32
  br label %is_one.exit

is_one.exit:                                      ; preds = %45, %39, %25, %11, %6, %1
  %61 = phi i32 [ 0, %25 ], [ 0, %11 ], [ 0, %6 ], [ 0, %1 ], [ %60, %45 ], [ 0, %39 ]
  ret i32 %61
}